target datalayout = "e-m:e-p270:32:32-p271:32:32-p272:64:64-i64:64-i128:128-f80:128-n8:16:32:64-S128"
target triple = "x86_64-pc-linux-gnu"

%struct._phar_metadata_tracker = type { %struct._zval_struct, ptr }
%struct._zval_struct = type { %union._zend_value, %union.anon.3, %union.anon.6 }
%union._zend_value = type { i64 }
%union.anon.3 = type { i32 }
%union.anon.6 = type { i32 }
%struct._phar_entry_info = type { i32, i32, i32, i32, i32, i32, %struct._phar_metadata_tracker, ptr, i32, i64, i64, i64, ptr, ptr, i32, ptr, ptr, ptr, i8, i32, i16, i16 }
%struct._phar_entry_data = type { ptr, ptr, i64, i64, ptr }
%struct._php_stream = type { ptr, ptr, %struct._php_stream_filter_chain, %struct._php_stream_filter_chain, ptr, ptr, %struct._zval_struct, i16, [16 x i8], i32, ptr, ptr, ptr, ptr, i64, ptr, i64, i64, i64, i64, ptr }
%struct._php_stream_filter_chain = type { ptr, ptr, ptr }

@.str.6 = private unnamed_addr constant [3 x i8] c"%s\00", align 1

; Function Attrs: nounwind uwtable
define internal i32 @phar_stream_flush(ptr noundef %0) #0 {
  %2 = alloca i32, align 4
  %3 = alloca ptr, align 8
  %4 = alloca ptr, align 8
  %5 = alloca ptr, align 8
  %6 = alloca i32, align 4
  store ptr %0, ptr %3, align 8, !tbaa !77
  call void @llvm.lifetime.start.p0(i64 8, ptr %4) #14
  call void @llvm.lifetime.start.p0(i64 8, ptr %5) #14
  %7 = load ptr, ptr %3, align 8, !tbaa !77
  %8 = getelementptr inbounds nuw %struct._php_stream, ptr %7, i32 0, i32 1
  %9 = load ptr, ptr %8, align 8, !tbaa !118
  store ptr %9, ptr %5, align 8, !tbaa !75
  %10 = load ptr, ptr %5, align 8, !tbaa !75
  %11 = getelementptr inbounds nuw %struct._phar_entry_data, ptr %10, i32 0, i32 4
  %12 = load ptr, ptr %11, align 8, !tbaa !84
  %13 = getelementptr inbounds nuw %struct._phar_entry_info, ptr %12, i32 0, i32 21
  %14 = load i16, ptr %13, align 2
  %15 = lshr i16 %14, 1
  %16 = and i16 %15, 1
  %17 = zext i16 %16 to i32
  %18 = icmp ne i32 %17, 0
  br i1 %18, label %19, label %38

19:                                               ; preds = %1
  %20 = call i64 @time(ptr noundef null) #14
  %21 = trunc i64 %20 to i32
  %22 = load ptr, ptr %5, align 8, !tbaa !75
  %23 = getelementptr inbounds nuw %struct._phar_entry_data, ptr %22, i32 0, i32 4
  %24 = load ptr, ptr %23, align 8, !tbaa !84
  %25 = getelementptr inbounds nuw %struct._phar_entry_info, ptr %24, i32 0, i32 1
  store i32 %21, ptr %25, align 4, !tbaa !58
  %26 = load ptr, ptr %5, align 8, !tbaa !75
  %27 = getelementptr inbounds nuw %struct._phar_entry_data, ptr %26, i32 0, i32 0
  %28 = load ptr, ptr %27, align 8, !tbaa !89
  call void @phar_flush(ptr noundef %28, ptr noundef %4)
  %29 = load ptr, ptr %4, align 8, !tbaa !9
  %30 = icmp ne ptr %29, null
  br i1 %30, label %31, label %37

31:                                               ; preds = %19
  %32 = load ptr, ptr %3, align 8, !tbaa !77
  %33 = getelementptr inbounds nuw %struct._php_stream, ptr %32, i32 0, i32 4
  %34 = load ptr, ptr %33, align 8, !tbaa !126
  %35 = load ptr, ptr %4, align 8, !tbaa !9
  call void (ptr, i32, ptr, ...) @php_stream_wrapper_log_error(ptr noundef %34, i32 noundef 8, ptr noundef @.str.6, ptr noundef %35)
  %36 = load ptr, ptr %4, align 8, !tbaa !9
  call void @_efree(ptr noundef %36)
  br label %37

37:                                               ; preds = %31, %19
  store i32 -1, ptr %2, align 4
  store i32 1, ptr %6, align 4
  br label %39

38:                                               ; preds = %1
  store i32 -1, ptr %2, align 4
  store i32 1, ptr %6, align 4
  br label %39

39:                                               ; preds = %38, %37
  call void @llvm.lifetime.end.p0(i64 8, ptr %5) #14
  call void @llvm.lifetime.end.p0(i64 8, ptr %4) #14
  %40 = load i32, ptr %2, align 4
  ret i32 %40
}

; Function Attrs: nounwind uwtable
define internal i32 @phar_stream_close(ptr noundef %0, i32 noundef %1) #0 {
  %3 = alloca ptr, align 8
  %4 = alloca i32, align 4
  store ptr %0, ptr %3, align 8, !tbaa !77
  store i32 %1, ptr %4, align 4, !tbaa !11
  %5 = load ptr, ptr %3, align 8, !tbaa !77
  %6 = call i32 @phar_stream_flush(ptr noundef %5)
  %7 = load ptr, ptr %3, align 8, !tbaa !77
  %8 = getelementptr inbounds nuw %struct._php_stream, ptr %7, i32 0, i32 1
  %9 = load ptr, ptr %8, align 8, !tbaa !118
  call void @phar_entry_delref(ptr noundef %9)
  ret i32 0
}