; Function Attrs: nounwind uwtable
define internal noundef i32 @phar_stream_close(ptr noundef readonly captures(none) %0, i32 %1) #0 {
  %3 = alloca ptr, align 8
  call void @llvm.lifetime.start.p0(i64 8, ptr nonnull %3) #15
  %4 = getelementptr inbounds nuw i8, ptr %0, i64 8
  %5 = load ptr, ptr %4, align 8, !tbaa !93
  %6 = getelementptr inbounds nuw i8, ptr %5, i64 32
  %7 = load ptr, ptr %6, align 8, !tbaa !63
  %8 = getelementptr inbounds nuw i8, ptr %7, i64 146
  %9 = load i16, ptr %8, align 2
  %10 = and i16 %9, 2
  %.not.i = icmp eq i16 %10, 0
  br i1 %.not.i, label %phar_stream_flush.exit, label %11

11:                                               ; preds = %2
  %12 = tail call i64 @time(ptr noundef null) #15
  %13 = trunc i64 %12 to i32
  %14 = load ptr, ptr %6, align 8, !tbaa !63
  %15 = getelementptr inbounds nuw i8, ptr %14, i64 4
  store i32 %13, ptr %15, align 4, !tbaa !106
  %16 = load ptr, ptr %5, align 8, !tbaa !68
  call void @phar_flush(ptr noundef %16, ptr noundef nonnull %3) #15
  %17 = load ptr, ptr %3, align 8, !tbaa !4
  %.not5.i = icmp eq ptr %17, null
  br i1 %.not5.i, label %phar_stream_flush.exit, label %18

18:                                               ; preds = %11
  %19 = getelementptr inbounds nuw i8, ptr %0, i64 64
  %20 = load ptr, ptr %19, align 8, !tbaa !102
  call void (ptr, i32, ptr, ...) @php_stream_wrapper_log_error(ptr noundef %20, i32 noundef 8, ptr noundef nonnull @.str.6, ptr noundef nonnull %17) #15
  %21 = load ptr, ptr %3, align 8, !tbaa !4
  call void @_efree(ptr noundef %21) #15
  br label %phar_stream_flush.exit

phar_stream_flush.exit:                           ; preds = %2, %11, %18
  call void @llvm.lifetime.end.p0(i64 8, ptr nonnull %3) #15
  %22 = load ptr, ptr %4, align 8, !tbaa !93
  call void @phar_entry_delref(ptr noundef %22) #15
  ret i32 0
}